target datalayout = "e-m:e-p270:32:32-p271:32:32-p272:64:64-i64:64-i128:128-f80:128-n8:16:32:64-S128"
target triple = "x86_64-pc-linux-gnu"

%"struct.OpenImageIO::v3_1_0::TagInfo" = type { i32, ptr, i32, i32, ptr }
%"class.OpenImageIO::v3_1_0::pvt::TagMap" = type { %"class.std::unique_ptr" }
%"class.std::unique_ptr" = type { %"struct.std::__uniq_ptr_data" }
%"struct.std::__uniq_ptr_data" = type { %"class.std::__uniq_ptr_impl" }
%"class.std::__uniq_ptr_impl" = type { %"class.std::tuple" }
%"class.std::tuple" = type { %"struct.std::_Tuple_impl" }
%"struct.std::_Tuple_impl" = type { %"struct.std::_Head_base.1" }
%"struct.std::_Head_base.1" = type { ptr }
%"class.OpenImageIO::v3_1_0::span" = type { ptr, i64 }
%"class.OpenImageIO::v3_1_0::basic_string_view" = type { ptr, i64 }

@__dso_handle = external hidden global i8
@_ZN11OpenImageIO6v3_1_0L14exif_tag_tableE = internal global [104 x %"struct.OpenImageIO::v3_1_0::TagInfo"] zeroinitializer, align 16
@_ZZN11OpenImageIO6v3_1_03pvt15exif_tagmap_refEvE1T = internal global %"class.OpenImageIO::v3_1_0::pvt::TagMap" zeroinitializer, align 8
@_ZGVZN11OpenImageIO6v3_1_03pvt15exif_tagmap_refEvE1T = internal global i64 0, align 8
@.str.119 = private unnamed_addr constant [5 x i8] c"EXIF\00", align 1
@_ZN11OpenImageIO6v3_1_03pvt6TagMapD1Ev = unnamed_addr alias void (ptr), ptr @_ZN11OpenImageIO6v3_1_03pvt6TagMapD2Ev

; Function Attrs: mustprogress nounwind uwtable
define linkonce_odr noundef i64 @_ZNSt11char_traitsIcE6lengthEPKc(ptr noundef %0) #7 comdat align 2 {
  %2 = alloca ptr, align 8
  store ptr %0, ptr %2, align 8, !tbaa !64
  %3 = load ptr, ptr %2, align 8, !tbaa !64
  %4 = call i64 @strlen(ptr noundef %3) #3
  ret i64 %4
}

; Function Attrs: mustprogress nounwind uwtable
define linkonce_odr hidden noundef i64 @_ZNK11OpenImageIO6v3_1_017basic_string_viewIcSt11char_traitsIcEE4sizeEv(ptr noundef nonnull align 8 dereferenceable(16) %0) #7 comdat align 2 {
  %2 = alloca ptr, align 8
  store ptr %0, ptr %2, align 8, !tbaa !8
  %3 = load ptr, ptr %2, align 8
  %4 = getelementptr inbounds nuw %"class.OpenImageIO::v3_1_0::basic_string_view", ptr %3, i32 0, i32 1
  %5 = load i64, ptr %4, align 8, !tbaa !18
  ret i64 %5
}

; Function Attrs: mustprogress nounwind uwtable
define linkonce_odr hidden noundef ptr @_ZNK11OpenImageIO6v3_1_017basic_string_viewIcSt11char_traitsIcEE4dataEv(ptr noundef nonnull align 8 dereferenceable(16) %0) #7 comdat align 2 {
  %2 = alloca ptr, align 8
  store ptr %0, ptr %2, align 8, !tbaa !8
  %3 = load ptr, ptr %2, align 8
  %4 = getelementptr inbounds nuw %"class.OpenImageIO::v3_1_0::basic_string_view", ptr %3, i32 0, i32 0
  %5 = load ptr, ptr %4, align 8, !tbaa !15
  ret ptr %5
}

; Function Attrs: mustprogress nounwind uwtable
define linkonce_odr hidden void @_ZN11OpenImageIO6v3_1_04spanIKNS0_7TagInfoELm18446744073709551615EEC2ILm104EEERAT__S3_(ptr noundef nonnull align 8 dereferenceable(16) %0, ptr noundef nonnull align 8 dereferenceable(3328) %1) unnamed_addr #7 comdat align 2 {
  %3 = alloca ptr, align 8
  %4 = alloca ptr, align 8
  store ptr %0, ptr %3, align 8, !tbaa !21
  store ptr %1, ptr %4, align 8, !tbaa !11
  %5 = load ptr, ptr %3, align 8
  %6 = getelementptr inbounds nuw %"class.OpenImageIO::v3_1_0::span", ptr %5, i32 0, i32 0
  %7 = load ptr, ptr %4, align 8, !tbaa !11
  %8 = getelementptr inbounds [104 x %"struct.OpenImageIO::v3_1_0::TagInfo"], ptr %7, i64 0, i64 0
  store ptr %8, ptr %6, align 8, !tbaa !97
  %9 = getelementptr inbounds nuw %"class.OpenImageIO::v3_1_0::span", ptr %5, i32 0, i32 1
  store i64 104, ptr %9, align 8, !tbaa !99
  ret void
}

; Function Attrs: mustprogress nounwind uwtable
define linkonce_odr hidden void @_ZN11OpenImageIO6v3_1_017basic_string_viewIcSt11char_traitsIcEEC2EPKc(ptr noundef nonnull align 8 dereferenceable(16) %0, ptr noundef %1) unnamed_addr #7 comdat align 2 {
  %3 = alloca ptr, align 8
  %4 = alloca ptr, align 8
  store ptr %0, ptr %3, align 8, !tbaa !8
  store ptr %1, ptr %4, align 8, !tbaa !64
  %5 = load ptr, ptr %3, align 8
  %6 = getelementptr inbounds nuw %"class.OpenImageIO::v3_1_0::basic_string_view", ptr %5, i32 0, i32 0
  %7 = load ptr, ptr %4, align 8, !tbaa !64
  store ptr %7, ptr %6, align 8, !tbaa !15
  %8 = getelementptr inbounds nuw %"class.OpenImageIO::v3_1_0::basic_string_view", ptr %5, i32 0, i32 1
  %9 = load ptr, ptr %4, align 8, !tbaa !64
  %10 = icmp ne ptr %9, null
  br i1 %10, label %11, label %14

11:                                               ; preds = %2
  %12 = load ptr, ptr %4, align 8, !tbaa !64
  %13 = call noundef i64 @_ZNSt11char_traitsIcE6lengthEPKc(ptr noundef %12)
  br label %15

14:                                               ; preds = %2
  br label %15

15:                                               ; preds = %14, %11
  %16 = phi i64 [ %13, %11 ], [ 0, %14 ]
  store i64 %16, ptr %8, align 8, !tbaa !18
  ret void
}

; Function Attrs: mustprogress nounwind uwtable
define linkonce_odr hidden void @_ZN11OpenImageIO6v3_1_017basic_string_viewIcSt11char_traitsIcEEC2ERKS4_(ptr noundef nonnull align 8 dereferenceable(16) %0, ptr noundef nonnull align 8 dereferenceable(16) %1) unnamed_addr #7 comdat align 2 {
  %3 = alloca ptr, align 8
  %4 = alloca ptr, align 8
  store ptr %0, ptr %3, align 8, !tbaa !8
  store ptr %1, ptr %4, align 8, !tbaa !8
  %5 = load ptr, ptr %3, align 8
  %6 = getelementptr inbounds nuw %"class.OpenImageIO::v3_1_0::basic_string_view", ptr %5, i32 0, i32 0
  %7 = load ptr, ptr %4, align 8, !tbaa !8
  %8 = call noundef ptr @_ZNK11OpenImageIO6v3_1_017basic_string_viewIcSt11char_traitsIcEE4dataEv(ptr noundef nonnull align 8 dereferenceable(16) %7) #3
  store ptr %8, ptr %6, align 8, !tbaa !15
  %9 = getelementptr inbounds nuw %"class.OpenImageIO::v3_1_0::basic_string_view", ptr %5, i32 0, i32 1
  %10 = load ptr, ptr %4, align 8, !tbaa !8
  %11 = call noundef i64 @_ZNK11OpenImageIO6v3_1_017basic_string_viewIcSt11char_traitsIcEE4sizeEv(ptr noundef nonnull align 8 dereferenceable(16) %10) #3
  store i64 %11, ptr %9, align 8, !tbaa !18
  ret void
}

; Function Attrs: mustprogress uwtable
define hidden noundef nonnull align 8 dereferenceable(8) ptr @_ZN11OpenImageIO6v3_1_03pvt15exif_tagmap_refEv() #5 personality ptr @__gxx_personality_v0 {
  %1 = alloca %"class.OpenImageIO::v3_1_0::basic_string_view", align 8
  %2 = alloca %"class.OpenImageIO::v3_1_0::span", align 8
  %3 = alloca ptr, align 8
  %4 = alloca i32, align 4
  %5 = load atomic i8, ptr @_ZGVZN11OpenImageIO6v3_1_03pvt15exif_tagmap_refEvE1T acquire, align 8
  %6 = icmp eq i8 %5, 0
  br i1 %6, label %7, label %17, !prof !65

7:                                                ; preds = %0
  %8 = call i32 @__cxa_guard_acquire(ptr @_ZGVZN11OpenImageIO6v3_1_03pvt15exif_tagmap_refEvE1T) #3
  %9 = icmp ne i32 %8, 0
  br i1 %9, label %10, label %17

10:                                               ; preds = %7
  call void @_ZN11OpenImageIO6v3_1_017basic_string_viewIcSt11char_traitsIcEEC2EPKc(ptr noundef nonnull align 8 dereferenceable(16) %1, ptr noundef @.str.119) #3
  call void @_ZN11OpenImageIO6v3_1_04spanIKNS0_7TagInfoELm18446744073709551615EEC2ILm104EEERAT__S3_(ptr noundef nonnull align 8 dereferenceable(16) %2, ptr noundef nonnull align 8 dereferenceable(3328) @_ZN11OpenImageIO6v3_1_0L14exif_tag_tableE) #3
  %11 = getelementptr inbounds nuw { ptr, i64 }, ptr %2, i32 0, i32 0
  %12 = load ptr, ptr %11, align 8
  %13 = getelementptr inbounds nuw { ptr, i64 }, ptr %2, i32 0, i32 1
  %14 = load i64, ptr %13, align 8
  invoke void @_ZN11OpenImageIO6v3_1_03pvt6TagMapC1ENS0_17basic_string_viewIcSt11char_traitsIcEEENS0_4spanIKNS0_7TagInfoELm18446744073709551615EEE(ptr noundef nonnull align 8 dereferenceable(8) @_ZZN11OpenImageIO6v3_1_03pvt15exif_tagmap_refEvE1T, ptr noundef %1, ptr %12, i64 %14)
          to label %15 unwind label %18

15:                                               ; preds = %10
  %16 = call i32 @__cxa_atexit(ptr @_ZN11OpenImageIO6v3_1_03pvt6TagMapD1Ev, ptr @_ZZN11OpenImageIO6v3_1_03pvt15exif_tagmap_refEvE1T, ptr @__dso_handle) #3
  call void @__cxa_guard_release(ptr @_ZGVZN11OpenImageIO6v3_1_03pvt15exif_tagmap_refEvE1T) #3
  br label %17

17:                                               ; preds = %15, %7, %0
  ret ptr @_ZZN11OpenImageIO6v3_1_03pvt15exif_tagmap_refEvE1T

18:                                               ; preds = %10
  %19 = landingpad { ptr, i32 }
          cleanup
  %20 = extractvalue { ptr, i32 } %19, 0
  store ptr %20, ptr %3, align 8
  %21 = extractvalue { ptr, i32 } %19, 1
  store i32 %21, ptr %4, align 4
  call void @__cxa_guard_abort(ptr @_ZGVZN11OpenImageIO6v3_1_03pvt15exif_tagmap_refEvE1T) #3
  br label %22

22:                                               ; preds = %18
  %23 = load ptr, ptr %3, align 8
  %24 = load i32, ptr %4, align 4
  %25 = insertvalue { ptr, i32 } poison, ptr %23, 0
  %26 = insertvalue { ptr, i32 } %25, i32 %24, 1
  resume { ptr, i32 } %26
}

; Function Attrs: mustprogress uwtable
define noundef zeroext i1 @_ZN11OpenImageIO6v3_1_015exif_tag_lookupENS0_17basic_string_viewIcSt11char_traitsIcEEERiS5_S5_(ptr noundef %0, ptr noundef nonnull align 4 dereferenceable(4) %1, ptr noundef nonnull align 4 dereferenceable(4) %2, ptr noundef nonnull align 4 dereferenceable(4) %3) #5 {
  %5 = alloca i1, align 1
  %6 = alloca ptr, align 8
  %7 = alloca ptr, align 8
  %8 = alloca ptr, align 8
  %9 = alloca ptr, align 8
  %10 = alloca ptr, align 8
  %11 = alloca %"class.OpenImageIO::v3_1_0::basic_string_view", align 8
  %12 = alloca i32, align 4
  store ptr %0, ptr %6, align 8, !tbaa !8
  store ptr %1, ptr %7, align 8, !tbaa !37
  store ptr %2, ptr %8, align 8, !tbaa !37
  store ptr %3, ptr %9, align 8, !tbaa !37
  call void @llvm.lifetime.start.p0(i64 8, ptr %10) #3
  %13 = call noundef nonnull align 8 dereferenceable(8) ptr @_ZN11OpenImageIO6v3_1_03pvt15exif_tagmap_refEv()
  call void @_ZN11OpenImageIO6v3_1_017basic_string_viewIcSt11char_traitsIcEEC2ERKS4_(ptr noundef nonnull align 8 dereferenceable(16) %11, ptr noundef nonnull align 8 dereferenceable(16) %0)
  %14 = call noundef ptr @_ZNK11OpenImageIO6v3_1_03pvt6TagMap4findENS0_17basic_string_viewIcSt11char_traitsIcEEE(ptr noundef nonnull align 8 dereferenceable(8) %13, ptr noundef %11)
  store ptr %14, ptr %10, align 8, !tbaa !11
  %15 = load ptr, ptr %10, align 8, !tbaa !11
  %16 = icmp ne ptr %15, null
  br i1 %16, label %18, label %17

17:                                               ; preds = %4
  store i1 false, ptr %5, align 1
  store i32 1, ptr %12, align 4
  br label %31

18:                                               ; preds = %4
  %19 = load ptr, ptr %10, align 8, !tbaa !11
  %20 = getelementptr inbounds nuw %"struct.OpenImageIO::v3_1_0::TagInfo", ptr %19, i32 0, i32 0
  %21 = load i32, ptr %20, align 8, !tbaa !63
  %22 = load ptr, ptr %7, align 8, !tbaa !37
  store i32 %21, ptr %22, align 4, !tbaa !32
  %23 = load ptr, ptr %10, align 8, !tbaa !11
  %24 = getelementptr inbounds nuw %"struct.OpenImageIO::v3_1_0::TagInfo", ptr %23, i32 0, i32 2
  %25 = load i32, ptr %24, align 8, !tbaa !61
  %26 = load ptr, ptr %8, align 8, !tbaa !37
  store i32 %25, ptr %26, align 4, !tbaa !32
  %27 = load ptr, ptr %10, align 8, !tbaa !11
  %28 = getelementptr inbounds nuw %"struct.OpenImageIO::v3_1_0::TagInfo", ptr %27, i32 0, i32 3
  %29 = load i32, ptr %28, align 4, !tbaa !62
  %30 = load ptr, ptr %9, align 8, !tbaa !37
  store i32 %29, ptr %30, align 4, !tbaa !32
  store i1 true, ptr %5, align 1
  store i32 1, ptr %12, align 4
  br label %31

31:                                               ; preds = %18, %17
  call void @llvm.lifetime.end.p0(i64 8, ptr %10) #3
  %32 = load i1, ptr %5, align 1
  ret i1 %32
}