; Function Attrs: mustprogress uwtable
define noundef zeroext i1 @_ZN11OpenImageIO6v3_1_015exif_tag_lookupENS0_17basic_string_viewIcSt11char_traitsIcEEERiS5_S5_(ptr noundef readonly captures(none) %0, ptr noundef nonnull writeonly align 4 captures(none) dereferenceable(4) %1, ptr noundef nonnull writeonly align 4 captures(none) dereferenceable(4) %2, ptr noundef nonnull writeonly align 4 captures(none) dereferenceable(4) %3) local_unnamed_addr #4 personality ptr @__gxx_personality_v0 {
  %5 = alloca %"class.OpenImageIO::v3_1_0::basic_string_view", align 8
  %6 = alloca %"class.OpenImageIO::v3_1_0::basic_string_view", align 8
  call void @llvm.lifetime.start.p0(i64 16, ptr nonnull %5)
  %7 = load atomic i8, ptr @_ZGVZN11OpenImageIO6v3_1_03pvt15exif_tagmap_refEvE1T acquire, align 8
  %8 = icmp eq i8 %7, 0
  br i1 %8, label %9, label %_ZN11OpenImageIO6v3_1_03pvt15exif_tagmap_refEv.exit, !prof !13

9:                                                ; preds = %4
  %10 = tail call i32 @__cxa_guard_acquire(ptr nonnull @_ZGVZN11OpenImageIO6v3_1_03pvt15exif_tagmap_refEvE1T) #34
  %.not.i = icmp eq i32 %10, 0
  br i1 %.not.i, label %_ZN11OpenImageIO6v3_1_03pvt15exif_tagmap_refEv.exit, label %11

11:                                               ; preds = %9
  store ptr @.str.119, ptr %5, align 8, !tbaa !3
  %12 = getelementptr inbounds nuw i8, ptr %5, i64 8
  store i64 4, ptr %12, align 8, !tbaa !10
  invoke void @_ZN11OpenImageIO6v3_1_03pvt6TagMapC1ENS0_17basic_string_viewIcSt11char_traitsIcEEENS0_4spanIKNS0_7TagInfoELm18446744073709551615EEE(ptr noundef nonnull align 8 dereferenceable(8) @_ZZN11OpenImageIO6v3_1_03pvt15exif_tagmap_refEvE1T, ptr noundef nonnull %5, ptr nonnull @_ZN11OpenImageIO6v3_1_0L14exif_tag_tableE, i64 104)
          to label %13 unwind label %15

13:                                               ; preds = %11
  %14 = call i32 @__cxa_atexit(ptr nonnull @_ZN11OpenImageIO6v3_1_03pvt6TagMapD1Ev, ptr nonnull @_ZZN11OpenImageIO6v3_1_03pvt15exif_tagmap_refEvE1T, ptr nonnull @__dso_handle) #34
  call void @__cxa_guard_release(ptr nonnull @_ZGVZN11OpenImageIO6v3_1_03pvt15exif_tagmap_refEvE1T) #34
  br label %_ZN11OpenImageIO6v3_1_03pvt15exif_tagmap_refEv.exit

15:                                               ; preds = %11
  %16 = landingpad { ptr, i32 }
          cleanup
  call void @__cxa_guard_abort(ptr nonnull @_ZGVZN11OpenImageIO6v3_1_03pvt15exif_tagmap_refEvE1T) #34
  resume { ptr, i32 } %16

_ZN11OpenImageIO6v3_1_03pvt15exif_tagmap_refEv.exit: ; preds = %4, %9, %13
  call void @llvm.lifetime.end.p0(i64 16, ptr nonnull %5)
  %17 = load ptr, ptr %0, align 8, !tbaa !3
  store ptr %17, ptr %6, align 8, !tbaa !3
  %18 = getelementptr inbounds nuw i8, ptr %6, i64 8
  %19 = getelementptr inbounds nuw i8, ptr %0, i64 8
  %20 = load i64, ptr %19, align 8, !tbaa !10
  store i64 %20, ptr %18, align 8, !tbaa !10
  %21 = call noundef ptr @_ZNK11OpenImageIO6v3_1_03pvt6TagMap4findENS0_17basic_string_viewIcSt11char_traitsIcEEE(ptr noundef nonnull align 8 dereferenceable(8) @_ZZN11OpenImageIO6v3_1_03pvt15exif_tagmap_refEvE1T, ptr noundef nonnull %6)
  %.not = icmp ne ptr %21, null
  br i1 %.not, label %22, label %28

22:                                               ; preds = %_ZN11OpenImageIO6v3_1_03pvt15exif_tagmap_refEv.exit
  %23 = load i32, ptr %21, align 8, !tbaa !85
  store i32 %23, ptr %1, align 4, !tbaa !73
  %24 = getelementptr inbounds nuw i8, ptr %21, i64 16
  %25 = load i32, ptr %24, align 8, !tbaa !83
  store i32 %25, ptr %2, align 4, !tbaa !73
  %26 = getelementptr inbounds nuw i8, ptr %21, i64 20
  %27 = load i32, ptr %26, align 4, !tbaa !84
  store i32 %27, ptr %3, align 4, !tbaa !73
  br label %28

28:                                               ; preds = %_ZN11OpenImageIO6v3_1_03pvt15exif_tagmap_refEv.exit, %22
  ret i1 %.not
}